; Function Attrs: nounwind uwtable
define internal void @xdgActivationHandleDone(ptr noundef captures(none) %0, ptr noundef readnone captures(address) %1, ptr noundef %2) #0 {
  %4 = getelementptr inbounds nuw i8, ptr %0, i64 1112
  %5 = load ptr, ptr %4, align 8, !tbaa !240
  %.not = icmp eq ptr %1, %5
  br i1 %.not, label %6, label %19

6:                                                ; preds = %3
  %7 = load ptr, ptr getelementptr inbounds nuw (i8, ptr @_glfw, i64 134016), align 8, !tbaa !250
  %8 = getelementptr inbounds nuw i8, ptr %0, i64 904
  %9 = load ptr, ptr %8, align 8, !tbaa !135
  %10 = load ptr, ptr getelementptr inbounds nuw (i8, ptr @_glfw, i64 137528), align 8, !tbaa !136
  %11 = load ptr, ptr getelementptr inbounds nuw (i8, ptr @_glfw, i64 137520), align 8, !tbaa !93
  %12 = tail call i32 %11(ptr noundef %7) #20
  %13 = tail call ptr (ptr, i32, ptr, i32, i32, ...) %10(ptr noundef %7, i32 noundef 2, ptr noundef null, i32 noundef %12, i32 noundef 0, ptr noundef %2, ptr noundef %9) #20
  %14 = load ptr, ptr %4, align 8, !tbaa !240
  %15 = load ptr, ptr getelementptr inbounds nuw (i8, ptr @_glfw, i64 137528), align 8, !tbaa !136
  %16 = load ptr, ptr getelementptr inbounds nuw (i8, ptr @_glfw, i64 137520), align 8, !tbaa !93
  %17 = tail call i32 %16(ptr noundef %14) #20
  %18 = tail call ptr (ptr, i32, ptr, i32, i32, ...) %15(ptr noundef %14, i32 noundef 4, ptr noundef null, i32 noundef %17, i32 noundef 1) #20
  store ptr null, ptr %4, align 8, !tbaa !240
  br label %19

19:                                               ; preds = %3, %6
  ret void
}